; Function Attrs: nounwind uwtable
define range(i32 -46, 1) i32 @pmix_hash_table_remove_value_uint64(ptr noundef captures(none) initializes((176, 184)) %0, i64 noundef %1) local_unnamed_addr #1 {
  %3 = getelementptr inbounds nuw i8, ptr %0, i64 136
  %4 = load i64, ptr %3, align 8, !tbaa !11
  %5 = getelementptr inbounds nuw i8, ptr %0, i64 176
  store ptr @pmix_hash_type_methods_uint64, ptr %5, align 8, !tbaa !21
  %6 = urem i64 %1, %4
  %7 = getelementptr inbounds nuw i8, ptr %0, i64 128
  %8 = load ptr, ptr %7, align 8, !tbaa !17
  %9 = getelementptr inbounds nuw %struct.pmix_hash_element_t, ptr %8, i64 %6
  %10 = load i32, ptr %9, align 8, !tbaa !18
  %.not26 = icmp eq i32 %10, 0
  br i1 %.not26, label %.loopexit, label %.lr.ph

.lr.ph:                                           ; preds = %2, %39
  %11 = phi ptr [ %42, %39 ], [ %9, %2 ]
  %spec.store.select27 = phi i64 [ %spec.store.select, %39 ], [ %6, %2 ]
  %12 = getelementptr inbounds nuw i8, ptr %11, i64 8
  %13 = load i64, ptr %12, align 8, !tbaa !36
  %14 = icmp eq i64 %13, %1
  br i1 %14, label %15, label %39

15:                                               ; preds = %.lr.ph
  store i32 0, ptr %11, align 8, !tbaa !18
  %.03441.i = add i64 %spec.store.select27, 1
  %16 = icmp eq i64 %.03441.i, %4
  %spec.store.select42.i = select i1 %16, i64 0, i64 %.03441.i
  %17 = getelementptr inbounds nuw %struct.pmix_hash_element_t, ptr %8, i64 %spec.store.select42.i
  %18 = load i32, ptr %17, align 8, !tbaa !18
  %.not3843.i = icmp eq i32 %18, 0
  br i1 %.not3843.i, label %pmix_hash_table_remove_elt_at.exit, label %.lr.ph45.i

.lr.ph45.i:                                       ; preds = %15, %.loopexit.i
  %19 = phi ptr [ %34, %.loopexit.i ], [ %17, %15 ]
  %spec.store.select44.i = phi i64 [ %spec.store.select.i, %.loopexit.i ], [ %spec.store.select42.i, %15 ]
  %20 = load ptr, ptr %5, align 8, !tbaa !21
  %21 = getelementptr inbounds nuw i8, ptr %20, i64 8
  %22 = load ptr, ptr %21, align 8, !tbaa !39
  %23 = tail call i64 %22(ptr noundef nonnull %19) #13
  %24 = urem i64 %23, %4
  %25 = icmp eq i64 %24, %spec.store.select44.i
  br i1 %25, label %.loopexit.i, label %.lr.ph.i

26:                                               ; preds = %.lr.ph.i
  %27 = add i64 %spec.store.select140.i, 1
  %28 = icmp eq i64 %27, %4
  %spec.store.select1.i = select i1 %28, i64 0, i64 %27
  %29 = icmp eq i64 %spec.store.select1.i, %spec.store.select44.i
  br i1 %29, label %.loopexit.i, label %.lr.ph.i

.lr.ph.i:                                         ; preds = %.lr.ph45.i, %26
  %spec.store.select140.i = phi i64 [ %spec.store.select1.i, %26 ], [ %24, %.lr.ph45.i ]
  %30 = getelementptr inbounds nuw %struct.pmix_hash_element_t, ptr %8, i64 %spec.store.select140.i
  %31 = load i32, ptr %30, align 8, !tbaa !18
  %.not39.i = icmp eq i32 %31, 0
  br i1 %.not39.i, label %32, label %26

32:                                               ; preds = %.lr.ph.i
  tail call void @llvm.memcpy.p0.p0.i64(ptr noundef nonnull align 8 dereferenceable(40) %30, ptr noundef nonnull align 8 dereferenceable(40) %19, i64 40, i1 false), !tbaa.struct !40
  store i32 0, ptr %19, align 8, !tbaa !18
  br label %.loopexit.i

.loopexit.i:                                      ; preds = %26, %32, %.lr.ph45.i
  %.034.i = add i64 %spec.store.select44.i, 1
  %33 = icmp eq i64 %.034.i, %4
  %spec.store.select.i = select i1 %33, i64 0, i64 %.034.i
  %34 = getelementptr inbounds nuw %struct.pmix_hash_element_t, ptr %8, i64 %spec.store.select.i
  %35 = load i32, ptr %34, align 8, !tbaa !18
  %.not38.i = icmp eq i32 %35, 0
  br i1 %.not38.i, label %pmix_hash_table_remove_elt_at.exit, label %.lr.ph45.i

pmix_hash_table_remove_elt_at.exit:               ; preds = %.loopexit.i, %15
  %36 = getelementptr inbounds nuw i8, ptr %0, i64 144
  %37 = load i64, ptr %36, align 8, !tbaa !27
  %38 = add i64 %37, -1
  store i64 %38, ptr %36, align 8, !tbaa !27
  br label %.loopexit

39:                                               ; preds = %.lr.ph
  %40 = add i64 %spec.store.select27, 1
  %41 = icmp eq i64 %40, %4
  %spec.store.select = select i1 %41, i64 0, i64 %40
  %42 = getelementptr inbounds nuw %struct.pmix_hash_element_t, ptr %8, i64 %spec.store.select
  %43 = load i32, ptr %42, align 8, !tbaa !18
  %.not = icmp eq i32 %43, 0
  br i1 %.not, label %.loopexit, label %.lr.ph

.loopexit:                                        ; preds = %39, %2, %pmix_hash_table_remove_elt_at.exit
  %.1.ph = phi i32 [ 0, %pmix_hash_table_remove_elt_at.exit ], [ -46, %2 ], [ -46, %39 ]
  ret i32 %.1.ph
}